target datalayout = "e-m:e-p270:32:32-p271:32:32-p272:64:64-i64:64-i128:128-f80:128-n8:16:32:64-S128"
target triple = "x86_64-pc-linux-gnu"

%union.pthread_mutex_t = type { %struct.__pthread_mutex_s }
%struct.__pthread_mutex_s = type { i32, i32, i32, i32, i32, i16, i16, %struct.__pthread_internal_list }
%struct.__pthread_internal_list = type { ptr, ptr }
%struct.trigger_info_msg = type { i32, ptr }
%struct.trigger_info = type { i16, i32, i16, ptr, i32, i32, i16, i32, ptr }
%struct.trig_mgr_info = type { i32, i16, i32, i16, ptr, ptr, i32, i32, i64, i32, i32, ptr, i8, ptr, ptr, i64 }

@trigger_list = dso_local global ptr null, align 8
@trigger_mutex = internal global %union.pthread_mutex_t zeroinitializer, align 8
@.str.2 = private unnamed_addr constant [29 x i8] c"%s: pthread_mutex_lock(): %m\00", align 1
@.str.3 = private unnamed_addr constant [31 x i8] c"%s: pthread_mutex_unlock(): %m\00", align 1
@__func__.trigger_get = private unnamed_addr constant [12 x i8] c"trigger_get\00", align 1
@.str.4 = private unnamed_addr constant [14 x i8] c"trigger_mgr.c\00", align 1
@.str.5 = private unnamed_addr constant [12 x i8] c"trigger_got\00", align 1

; Function Attrs: nounwind uwtable
define dso_local ptr @trigger_get(i32 noundef %0, ptr noundef %1) #0 {
  %3 = alloca i32, align 4
  %4 = alloca ptr, align 8
  %5 = alloca ptr, align 8
  %6 = alloca ptr, align 8
  %7 = alloca ptr, align 8
  %8 = alloca ptr, align 8
  %9 = alloca i32, align 4
  %10 = alloca i32, align 4
  %11 = alloca i32, align 4
  store i32 %0, ptr %3, align 4
  store ptr %1, ptr %4, align 8
  call void @llvm.lifetime.start.p0(i64 8, ptr %5) #10
  call void @llvm.lifetime.start.p0(i64 8, ptr %6) #10
  call void @llvm.lifetime.start.p0(i64 8, ptr %7) #10
  call void @llvm.lifetime.start.p0(i64 8, ptr %8) #10
  call void @llvm.lifetime.start.p0(i64 4, ptr %9) #10
  store i32 0, ptr %9, align 4
  br label %12

12:                                               ; preds = %2
  call void @llvm.lifetime.start.p0(i64 4, ptr %10) #10
  %13 = call i32 @pthread_mutex_lock(ptr noundef @trigger_mutex) #10
  store i32 %13, ptr %10, align 4
  %14 = load i32, ptr %10, align 4
  %15 = icmp ne i32 %14, 0
  br i1 %15, label %16, label %19

16:                                               ; preds = %12
  %17 = load i32, ptr %10, align 4
  %18 = call ptr @__errno_location() #11
  store i32 %17, ptr %18, align 4
  call void (ptr, ...) @fatal_abort(ptr noundef @.str.2, ptr noundef @__func__.trigger_get) #12
  unreachable

19:                                               ; preds = %12
  call void @llvm.lifetime.end.p0(i64 4, ptr %10) #10
  br label %20

20:                                               ; preds = %19
  br label %21

21:                                               ; preds = %20
  %22 = load ptr, ptr @trigger_list, align 8
  %23 = icmp eq ptr %22, null
  br i1 %23, label %24, label %26

24:                                               ; preds = %21
  %25 = call ptr @list_create(ptr noundef @_trig_del)
  store ptr %25, ptr @trigger_list, align 8
  br label %26

26:                                               ; preds = %24, %21
  call void @_dump_trigger_msg(ptr noundef @__func__.trigger_get, ptr noundef null)
  %27 = call ptr @slurm_xcalloc(i64 noundef 1, i64 noundef 16, i1 noundef zeroext true, i1 noundef zeroext false, ptr noundef @.str.4, i32 noundef 347, ptr noundef @__func__.trigger_get)
  store ptr %27, ptr %5, align 8
  %28 = load ptr, ptr @trigger_list, align 8
  %29 = call i32 @list_count(ptr noundef %28)
  %30 = load ptr, ptr %5, align 8
  %31 = getelementptr inbounds nuw %struct.trigger_info_msg, ptr %30, i32 0, i32 0
  store i32 %29, ptr %31, align 8
  %32 = load ptr, ptr %5, align 8
  %33 = getelementptr inbounds nuw %struct.trigger_info_msg, ptr %32, i32 0, i32 0
  %34 = load i32, ptr %33, align 8
  %35 = zext i32 %34 to i64
  %36 = call ptr @slurm_xcalloc(i64 noundef %35, i64 noundef 48, i1 noundef zeroext true, i1 noundef zeroext false, ptr noundef @.str.4, i32 noundef 350, ptr noundef @__func__.trigger_get)
  %37 = load ptr, ptr %5, align 8
  %38 = getelementptr inbounds nuw %struct.trigger_info_msg, ptr %37, i32 0, i32 1
  store ptr %36, ptr %38, align 8
  %39 = load ptr, ptr @trigger_list, align 8
  %40 = call ptr @list_iterator_create(ptr noundef %39)
  store ptr %40, ptr %6, align 8
  %41 = load ptr, ptr %5, align 8
  %42 = getelementptr inbounds nuw %struct.trigger_info_msg, ptr %41, i32 0, i32 1
  %43 = load ptr, ptr %42, align 8
  store ptr %43, ptr %7, align 8
  br label %44

44:                                               ; preds = %62, %61, %26
  %45 = load ptr, ptr %6, align 8
  %46 = call ptr @list_next(ptr noundef %45)
  store ptr %46, ptr %8, align 8
  %47 = icmp ne ptr %46, null
  br i1 %47, label %48, label %110

48:                                               ; preds = %44
  %49 = load ptr, ptr %8, align 8
  %50 = getelementptr inbounds nuw %struct.trig_mgr_info, ptr %49, i32 0, i32 12
  %51 = load i8, ptr %50, align 8
  %52 = zext i8 %51 to i32
  %53 = icmp sge i32 %52, 1
  br i1 %53, label %54, label %62

54:                                               ; preds = %48
  %55 = load ptr, ptr %7, align 8
  %56 = getelementptr inbounds nuw %struct.trigger_info, ptr %55, i32 0, i32 0
  %57 = load i16, ptr %56, align 8
  %58 = zext i16 %57 to i32
  %59 = and i32 %58, 1
  %60 = icmp eq i32 %59, 0
  br i1 %60, label %61, label %62

61:                                               ; preds = %54
  br label %44, !llvm.loop !13

62:                                               ; preds = %54, %48
  %63 = load ptr, ptr %8, align 8
  %64 = getelementptr inbounds nuw %struct.trig_mgr_info, ptr %63, i32 0, i32 1
  %65 = load i16, ptr %64, align 4
  %66 = load ptr, ptr %7, align 8
  %67 = getelementptr inbounds nuw %struct.trigger_info, ptr %66, i32 0, i32 0
  store i16 %65, ptr %67, align 8
  %68 = load ptr, ptr %8, align 8
  %69 = getelementptr inbounds nuw %struct.trig_mgr_info, ptr %68, i32 0, i32 2
  %70 = load i32, ptr %69, align 8
  %71 = load ptr, ptr %7, align 8
  %72 = getelementptr inbounds nuw %struct.trigger_info, ptr %71, i32 0, i32 1
  store i32 %70, ptr %72, align 4
  %73 = load ptr, ptr %8, align 8
  %74 = getelementptr inbounds nuw %struct.trig_mgr_info, ptr %73, i32 0, i32 3
  %75 = load i16, ptr %74, align 4
  %76 = load ptr, ptr %7, align 8
  %77 = getelementptr inbounds nuw %struct.trigger_info, ptr %76, i32 0, i32 2
  store i16 %75, ptr %77, align 8
  %78 = load ptr, ptr %8, align 8
  %79 = getelementptr inbounds nuw %struct.trig_mgr_info, ptr %78, i32 0, i32 4
  %80 = load ptr, ptr %79, align 8
  %81 = call ptr @xstrdup(ptr noundef %80)
  %82 = load ptr, ptr %7, align 8
  %83 = getelementptr inbounds nuw %struct.trigger_info, ptr %82, i32 0, i32 3
  store ptr %81, ptr %83, align 8
  %84 = load ptr, ptr %8, align 8
  %85 = getelementptr inbounds nuw %struct.trig_mgr_info, ptr %84, i32 0, i32 7
  %86 = load i32, ptr %85, align 4
  %87 = load ptr, ptr %7, align 8
  %88 = getelementptr inbounds nuw %struct.trigger_info, ptr %87, i32 0, i32 5
  store i32 %86, ptr %88, align 4
  %89 = load ptr, ptr %8, align 8
  %90 = getelementptr inbounds nuw %struct.trig_mgr_info, ptr %89, i32 0, i32 8
  %91 = load i64, ptr %90, align 8
  %92 = trunc i64 %91 to i16
  %93 = load ptr, ptr %7, align 8
  %94 = getelementptr inbounds nuw %struct.trigger_info, ptr %93, i32 0, i32 6
  store i16 %92, ptr %94, align 8
  %95 = load ptr, ptr %8, align 8
  %96 = getelementptr inbounds nuw %struct.trig_mgr_info, ptr %95, i32 0, i32 9
  %97 = load i32, ptr %96, align 8
  %98 = load ptr, ptr %7, align 8
  %99 = getelementptr inbounds nuw %struct.trigger_info, ptr %98, i32 0, i32 7
  store i32 %97, ptr %99, align 4
  %100 = load ptr, ptr %8, align 8
  %101 = getelementptr inbounds nuw %struct.trig_mgr_info, ptr %100, i32 0, i32 11
  %102 = load ptr, ptr %101, align 8
  %103 = call ptr @xstrdup(ptr noundef %102)
  %104 = load ptr, ptr %7, align 8
  %105 = getelementptr inbounds nuw %struct.trigger_info, ptr %104, i32 0, i32 8
  store ptr %103, ptr %105, align 8
  %106 = load ptr, ptr %7, align 8
  %107 = getelementptr inbounds nuw %struct.trigger_info, ptr %106, i32 1
  store ptr %107, ptr %7, align 8
  %108 = load i32, ptr %9, align 4
  %109 = add nsw i32 %108, 1
  store i32 %109, ptr %9, align 4
  br label %44, !llvm.loop !13

110:                                              ; preds = %44
  %111 = load ptr, ptr %6, align 8
  call void @list_iterator_destroy(ptr noundef %111)
  br label %112

112:                                              ; preds = %110
  call void @llvm.lifetime.start.p0(i64 4, ptr %11) #10
  %113 = call i32 @pthread_mutex_unlock(ptr noundef @trigger_mutex) #10
  store i32 %113, ptr %11, align 4
  %114 = load i32, ptr %11, align 4
  %115 = icmp ne i32 %114, 0
  br i1 %115, label %116, label %119

116:                                              ; preds = %112
  %117 = load i32, ptr %11, align 4
  %118 = call ptr @__errno_location() #11
  store i32 %117, ptr %118, align 4
  call void (ptr, ...) @fatal_abort(ptr noundef @.str.3, ptr noundef @__func__.trigger_get) #12
  unreachable

119:                                              ; preds = %112
  call void @llvm.lifetime.end.p0(i64 4, ptr %11) #10
  br label %120

120:                                              ; preds = %119
  br label %121

121:                                              ; preds = %120
  %122 = load i32, ptr %9, align 4
  %123 = load ptr, ptr %5, align 8
  %124 = getelementptr inbounds nuw %struct.trigger_info_msg, ptr %123, i32 0, i32 0
  store i32 %122, ptr %124, align 8
  %125 = load ptr, ptr %5, align 8
  call void @_dump_trigger_msg(ptr noundef @.str.5, ptr noundef %125)
  %126 = load ptr, ptr %5, align 8
  call void @llvm.lifetime.end.p0(i64 4, ptr %9) #10
  call void @llvm.lifetime.end.p0(i64 8, ptr %8) #10
  call void @llvm.lifetime.end.p0(i64 8, ptr %7) #10
  call void @llvm.lifetime.end.p0(i64 8, ptr %6) #10
  call void @llvm.lifetime.end.p0(i64 8, ptr %5) #10
  ret ptr %126
}