; Function Attrs: nounwind uwtable
define dso_local ptr @trigger_get(i32 noundef %0, ptr noundef readnone captures(none) %1) local_unnamed_addr #0 {
  %3 = tail call i32 @pthread_mutex_lock(ptr noundef nonnull @trigger_mutex) #12
  %.not = icmp eq i32 %3, 0
  br i1 %.not, label %6, label %4

4:                                                ; preds = %2
  %5 = tail call ptr @__errno_location() #13
  store i32 %3, ptr %5, align 4
  tail call void (ptr, ...) @fatal_abort(ptr noundef nonnull @.str.2, ptr noundef nonnull @__func__.trigger_get) #14
  unreachable

6:                                                ; preds = %2
  %7 = load ptr, ptr @trigger_list, align 8
  %8 = icmp eq ptr %7, null
  br i1 %8, label %9, label %11

9:                                                ; preds = %6
  %10 = tail call ptr @list_create(ptr noundef nonnull @_trig_del) #12
  store ptr %10, ptr @trigger_list, align 8
  br label %11

11:                                               ; preds = %9, %6
  %12 = load i64, ptr getelementptr inbounds nuw (i8, ptr @slurm_conf, i64 320), align 8
  %13 = and i64 %12, 4
  %.not.i = icmp eq i64 %13, 0
  br i1 %.not.i, label %_dump_trigger_msg.exit, label %14

14:                                               ; preds = %11
  %15 = tail call i32 @get_log_level() #12
  %16 = icmp sgt i32 %15, 2
  br i1 %16, label %17, label %18

17:                                               ; preds = %14
  tail call void (i32, ptr, ...) @log_var(i32 noundef 3, ptr noundef nonnull @.str.18, ptr noundef nonnull @__func__.trigger_get) #12
  br label %18

18:                                               ; preds = %17, %14
  %19 = tail call i32 @get_log_level() #12
  %20 = icmp sgt i32 %19, 2
  br i1 %20, label %21, label %_dump_trigger_msg.exit

21:                                               ; preds = %18
  tail call void (i32, ptr, ...) @log_var(i32 noundef 3, ptr noundef nonnull @.str.19) #12
  br label %_dump_trigger_msg.exit

_dump_trigger_msg.exit:                           ; preds = %11, %18, %21
  %22 = tail call ptr @slurm_xcalloc(i64 noundef 1, i64 noundef 16, i1 noundef zeroext true, i1 noundef zeroext false, ptr noundef nonnull @.str.4, i32 noundef 347, ptr noundef nonnull @__func__.trigger_get) #12
  %23 = load ptr, ptr @trigger_list, align 8
  %24 = tail call i32 @list_count(ptr noundef %23) #12
  store i32 %24, ptr %22, align 8
  %25 = zext i32 %24 to i64
  %26 = tail call ptr @slurm_xcalloc(i64 noundef %25, i64 noundef 48, i1 noundef zeroext true, i1 noundef zeroext false, ptr noundef nonnull @.str.4, i32 noundef 350, ptr noundef nonnull @__func__.trigger_get) #12
  %27 = getelementptr inbounds nuw i8, ptr %22, i64 8
  store ptr %26, ptr %27, align 8
  %28 = load ptr, ptr @trigger_list, align 8
  %29 = tail call ptr @list_iterator_create(ptr noundef %28) #12
  %30 = load ptr, ptr %27, align 8
  br label %.outer

.outer:                                           ; preds = %40, %_dump_trigger_msg.exit
  %.033.ph = phi i32 [ %68, %40 ], [ 0, %_dump_trigger_msg.exit ]
  %.0.ph = phi ptr [ %67, %40 ], [ %30, %_dump_trigger_msg.exit ]
  br label %31

31:                                               ; preds = %.outer, %36
  %32 = tail call ptr @list_next(ptr noundef %29) #12
  %.not37 = icmp eq ptr %32, null
  br i1 %.not37, label %69, label %33

33:                                               ; preds = %31
  %34 = getelementptr inbounds nuw i8, ptr %32, i64 64
  %35 = load i8, ptr %34, align 8
  %.not39 = icmp eq i8 %35, 0
  br i1 %.not39, label %40, label %36

36:                                               ; preds = %33
  %37 = load i16, ptr %.0.ph, align 8
  %38 = and i16 %37, 1
  %39 = icmp eq i16 %38, 0
  br i1 %39, label %31, label %40, !llvm.loop !13

40:                                               ; preds = %36, %33
  %41 = getelementptr inbounds nuw i8, ptr %32, i64 4
  %42 = load i16, ptr %41, align 4
  store i16 %42, ptr %.0.ph, align 8
  %43 = getelementptr inbounds nuw i8, ptr %32, i64 8
  %44 = load i32, ptr %43, align 8
  %45 = getelementptr inbounds nuw i8, ptr %.0.ph, i64 4
  store i32 %44, ptr %45, align 4
  %46 = getelementptr inbounds nuw i8, ptr %32, i64 12
  %47 = load i16, ptr %46, align 4
  %48 = getelementptr inbounds nuw i8, ptr %.0.ph, i64 8
  store i16 %47, ptr %48, align 8
  %49 = getelementptr inbounds nuw i8, ptr %32, i64 16
  %50 = load ptr, ptr %49, align 8
  %51 = tail call ptr @xstrdup(ptr noundef %50) #12
  %52 = getelementptr inbounds nuw i8, ptr %.0.ph, i64 16
  store ptr %51, ptr %52, align 8
  %53 = getelementptr inbounds nuw i8, ptr %32, i64 36
  %54 = load i32, ptr %53, align 4
  %55 = getelementptr inbounds nuw i8, ptr %.0.ph, i64 28
  store i32 %54, ptr %55, align 4
  %56 = getelementptr inbounds nuw i8, ptr %32, i64 40
  %57 = load i64, ptr %56, align 8
  %58 = trunc i64 %57 to i16
  %59 = getelementptr inbounds nuw i8, ptr %.0.ph, i64 32
  store i16 %58, ptr %59, align 8
  %60 = getelementptr inbounds nuw i8, ptr %32, i64 48
  %61 = load i32, ptr %60, align 8
  %62 = getelementptr inbounds nuw i8, ptr %.0.ph, i64 36
  store i32 %61, ptr %62, align 4
  %63 = getelementptr inbounds nuw i8, ptr %32, i64 56
  %64 = load ptr, ptr %63, align 8
  %65 = tail call ptr @xstrdup(ptr noundef %64) #12
  %66 = getelementptr inbounds nuw i8, ptr %.0.ph, i64 40
  store ptr %65, ptr %66, align 8
  %67 = getelementptr inbounds nuw i8, ptr %.0.ph, i64 48
  %68 = add nuw nsw i32 %.033.ph, 1
  br label %.outer, !llvm.loop !13

69:                                               ; preds = %31
  tail call void @list_iterator_destroy(ptr noundef %29) #12
  %70 = tail call i32 @pthread_mutex_unlock(ptr noundef nonnull @trigger_mutex) #12
  %.not38 = icmp eq i32 %70, 0
  br i1 %.not38, label %73, label %71

71:                                               ; preds = %69
  %72 = tail call ptr @__errno_location() #13
  store i32 %70, ptr %72, align 4
  tail call void (ptr, ...) @fatal_abort(ptr noundef nonnull @.str.3, ptr noundef nonnull @__func__.trigger_get) #14
  unreachable

73:                                               ; preds = %69
  store i32 %.033.ph, ptr %22, align 8
  tail call fastcc void @_dump_trigger_msg(ptr noundef nonnull @.str.5, ptr noundef nonnull %22)
  ret ptr %22
}